target datalayout = "e-m:e-p270:32:32-p271:32:32-p272:64:64-i64:64-i128:128-f80:128-n8:16:32:64-S128"
target triple = "x86_64-pc-linux-gnu"

; Function Attrs: nounwind uwtable
define i32 @Rpo_computeMinEdgeCost(ptr noundef %0, i32 noundef %1, ptr noundef %2) #0 {
  %4 = alloca ptr, align 8
  %5 = alloca i32, align 4
  %6 = alloca ptr, align 8
  %7 = alloca i32, align 4
  %8 = alloca i32, align 4
  %9 = alloca i32, align 4
  %10 = alloca ptr, align 8
  %11 = alloca i32, align 4
  %12 = alloca i32, align 4
  %13 = alloca i32, align 4
  store ptr %0, ptr %4, align 8, !tbaa !22
  store i32 %1, ptr %5, align 4, !tbaa !8
  store ptr %2, ptr %6, align 8, !tbaa !10
  call void @llvm.lifetime.start.p0(i64 4, ptr %7) #10
  store i32 -1, ptr %7, align 4, !tbaa !8
  call void @llvm.lifetime.start.p0(i64 4, ptr %8) #10
  store i32 -1, ptr %8, align 4, !tbaa !8
  call void @llvm.lifetime.start.p0(i64 4, ptr %9) #10
  store i32 -1, ptr %9, align 4, !tbaa !8
  call void @llvm.lifetime.start.p0(i64 8, ptr %10) #10
  call void @llvm.lifetime.start.p0(i64 4, ptr %11) #10
  call void @llvm.lifetime.start.p0(i64 4, ptr %12) #10
  call void @llvm.lifetime.start.p0(i64 4, ptr %13) #10
  store i32 0, ptr %13, align 4, !tbaa !8
  br label %14

14:                                               ; preds = %88, %3
  %15 = load i32, ptr %13, align 4, !tbaa !8
  %16 = load i32, ptr %5, align 4, !tbaa !8
  %17 = icmp slt i32 %15, %16
  br i1 %17, label %18, label %91

18:                                               ; preds = %14
  %19 = load ptr, ptr %4, align 8, !tbaa !22
  %20 = load i32, ptr %13, align 4, !tbaa !8
  %21 = sext i32 %20 to i64
  %22 = getelementptr inbounds ptr, ptr %19, i64 %21
  %23 = load ptr, ptr %22, align 8, !tbaa !20
  store ptr %23, ptr %10, align 8, !tbaa !20
  %24 = load ptr, ptr %10, align 8, !tbaa !20
  %25 = load i64, ptr %24, align 8
  %26 = and i64 %25, 1
  %27 = icmp ne i64 %26, 0
  br i1 %27, label %87, label %28

28:                                               ; preds = %18
  %29 = load ptr, ptr %6, align 8, !tbaa !10
  %30 = load ptr, ptr %10, align 8, !tbaa !20
  %31 = load i64, ptr %30, align 8
  %32 = lshr i64 %31, 4
  %33 = and i64 %32, 1073741823
  %34 = getelementptr inbounds nuw i32, ptr %29, i64 %33
  %35 = load i32, ptr %34, align 4, !tbaa !8
  %36 = load ptr, ptr %6, align 8, !tbaa !10
  %37 = load ptr, ptr %10, align 8, !tbaa !20
  %38 = load i64, ptr %37, align 8
  %39 = lshr i64 %38, 34
  %40 = getelementptr inbounds nuw i32, ptr %36, i64 %39
  %41 = load i32, ptr %40, align 4, !tbaa !8
  %42 = add nsw i32 %35, %41
  store i32 %42, ptr %11, align 4, !tbaa !8
  %43 = load ptr, ptr %10, align 8, !tbaa !20
  %44 = load i64, ptr %43, align 8
  %45 = lshr i64 %44, 4
  %46 = and i64 %45, 1073741823
  %47 = trunc i64 %46 to i32
  %48 = load ptr, ptr %10, align 8, !tbaa !20
  %49 = load i64, ptr %48, align 8
  %50 = lshr i64 %49, 34
  %51 = trunc i64 %50 to i32
  %52 = icmp slt i32 %47, %51
  br i1 %52, label %53, label %59

53:                                               ; preds = %28
  %54 = load ptr, ptr %10, align 8, !tbaa !20
  %55 = load i64, ptr %54, align 8
  %56 = lshr i64 %55, 4
  %57 = and i64 %56, 1073741823
  %58 = trunc i64 %57 to i32
  br label %64

59:                                               ; preds = %28
  %60 = load ptr, ptr %10, align 8, !tbaa !20
  %61 = load i64, ptr %60, align 8
  %62 = lshr i64 %61, 34
  %63 = trunc i64 %62 to i32
  br label %64

64:                                               ; preds = %59, %53
  %65 = phi i32 [ %58, %53 ], [ %63, %59 ]
  store i32 %65, ptr %12, align 4, !tbaa !8
  %66 = load i32, ptr %11, align 4, !tbaa !8
  %67 = load i32, ptr %9, align 4, !tbaa !8
  %68 = icmp ult i32 %66, %67
  br i1 %68, label %69, label %73

69:                                               ; preds = %64
  %70 = load i32, ptr %11, align 4, !tbaa !8
  store i32 %70, ptr %9, align 4, !tbaa !8
  %71 = load i32, ptr %13, align 4, !tbaa !8
  store i32 %71, ptr %7, align 4, !tbaa !8
  %72 = load i32, ptr %12, align 4, !tbaa !8
  store i32 %72, ptr %8, align 4, !tbaa !8
  br label %86

73:                                               ; preds = %64
  %74 = load i32, ptr %11, align 4, !tbaa !8
  %75 = load i32, ptr %9, align 4, !tbaa !8
  %76 = icmp eq i32 %74, %75
  br i1 %76, label %77, label %85

77:                                               ; preds = %73
  %78 = load i32, ptr %12, align 4, !tbaa !8
  %79 = load i32, ptr %8, align 4, !tbaa !8
  %80 = icmp slt i32 %78, %79
  br i1 %80, label %81, label %85

81:                                               ; preds = %77
  %82 = load i32, ptr %11, align 4, !tbaa !8
  store i32 %82, ptr %9, align 4, !tbaa !8
  %83 = load i32, ptr %13, align 4, !tbaa !8
  store i32 %83, ptr %7, align 4, !tbaa !8
  %84 = load i32, ptr %12, align 4, !tbaa !8
  store i32 %84, ptr %8, align 4, !tbaa !8
  br label %85

85:                                               ; preds = %81, %77, %73
  br label %86

86:                                               ; preds = %85, %69
  br label %87

87:                                               ; preds = %86, %18
  br label %88

88:                                               ; preds = %87
  %89 = load i32, ptr %13, align 4, !tbaa !8
  %90 = add nsw i32 %89, 1
  store i32 %90, ptr %13, align 4, !tbaa !8
  br label %14, !llvm.loop !24

91:                                               ; preds = %14
  %92 = load i32, ptr %7, align 4, !tbaa !8
  call void @llvm.lifetime.end.p0(i64 4, ptr %13) #10
  call void @llvm.lifetime.end.p0(i64 4, ptr %12) #10
  call void @llvm.lifetime.end.p0(i64 4, ptr %11) #10
  call void @llvm.lifetime.end.p0(i64 8, ptr %10) #10
  call void @llvm.lifetime.end.p0(i64 4, ptr %9) #10
  call void @llvm.lifetime.end.p0(i64 4, ptr %8) #10
  call void @llvm.lifetime.end.p0(i64 4, ptr %7) #10
  ret i32 %92
}