; Function Attrs: nofree norecurse nosync nounwind memory(read, inaccessiblemem: none) uwtable
define i32 @Rpo_computeMinEdgeCost(ptr noundef readonly captures(none) %0, i32 noundef %1, ptr noundef readonly captures(none) %2) local_unnamed_addr #5 {
  %4 = icmp sgt i32 %1, 0
  br i1 %4, label %.lr.ph.preheader, label %._crit_edge

.lr.ph.preheader:                                 ; preds = %3
  %wide.trip.count = zext nneg i32 %1 to i64
  br label %.lr.ph

.lr.ph:                                           ; preds = %.lr.ph.preheader, %24
  %indvars.iv = phi i64 [ 0, %.lr.ph.preheader ], [ %indvars.iv.next, %24 ]
  %.02638 = phi i32 [ -1, %.lr.ph.preheader ], [ %.1, %24 ]
  %.02737 = phi i32 [ -1, %.lr.ph.preheader ], [ %.128, %24 ]
  %.02936 = phi i32 [ -1, %.lr.ph.preheader ], [ %.130, %24 ]
  %5 = getelementptr inbounds nuw ptr, ptr %0, i64 %indvars.iv
  %6 = load ptr, ptr %5, align 8, !tbaa !17
  %7 = load i64, ptr %6, align 8
  %8 = and i64 %7, 1
  %.not = icmp eq i64 %8, 0
  br i1 %.not, label %9, label %24

9:                                                ; preds = %.lr.ph
  %10 = lshr i64 %7, 4
  %11 = and i64 %10, 1073741823
  %12 = getelementptr inbounds nuw i32, ptr %2, i64 %11
  %13 = load i32, ptr %12, align 4, !tbaa !10
  %14 = lshr i64 %7, 34
  %15 = getelementptr inbounds nuw i32, ptr %2, i64 %14
  %16 = load i32, ptr %15, align 4, !tbaa !10
  %17 = add nsw i32 %16, %13
  %. = tail call i64 @llvm.umin.i64(i64 %11, i64 %14)
  %18 = trunc nuw nsw i64 %. to i32
  %19 = icmp ult i32 %17, %.02936
  %20 = trunc nuw nsw i64 %indvars.iv to i32
  br i1 %19, label %24, label %21

21:                                               ; preds = %9
  %22 = icmp eq i32 %17, %.02936
  %23 = icmp sgt i32 %.02737, %18
  %or.cond = select i1 %22, i1 %23, i1 false
  %spec.select = select i1 %or.cond, i32 %18, i32 %.02737
  %spec.select41 = select i1 %or.cond, i32 %20, i32 %.02638
  br label %24

24:                                               ; preds = %21, %9, %.lr.ph
  %.130 = phi i32 [ %.02936, %.lr.ph ], [ %17, %9 ], [ %.02936, %21 ]
  %.128 = phi i32 [ %.02737, %.lr.ph ], [ %18, %9 ], [ %spec.select, %21 ]
  %.1 = phi i32 [ %.02638, %.lr.ph ], [ %20, %9 ], [ %spec.select41, %21 ]
  %indvars.iv.next = add nuw nsw i64 %indvars.iv, 1
  %exitcond.not = icmp eq i64 %indvars.iv.next, %wide.trip.count
  br i1 %exitcond.not, label %._crit_edge, label %.lr.ph, !llvm.loop !19

._crit_edge:                                      ; preds = %24, %3
  %.026.lcssa = phi i32 [ -1, %3 ], [ %.1, %24 ]
  ret i32 %.026.lcssa
}